target datalayout = "e-m:e-p270:32:32-p271:32:32-p272:64:64-i64:64-i128:128-f80:128-n8:16:32:64-S128"
target triple = "x86_64-pc-linux-gnu"

; Function Attrs: nounwind uwtable
define hidden void @SDL_aligned_free_REAL(ptr noundef %0) #0 {
  %2 = alloca ptr, align 8
  %3 = alloca ptr, align 8
  store ptr %0, ptr %2, align 8
  %4 = load ptr, ptr %2, align 8
  %5 = icmp ne ptr %4, null
  br i1 %5, label %6, label %10

6:                                                ; preds = %1
  call void @llvm.lifetime.start.p0(i64 8, ptr %3) #8
  %7 = load ptr, ptr %2, align 8
  %8 = getelementptr inbounds i8, ptr %7, i64 -8
  call void @llvm.memcpy.p0.p0.i64(ptr align 8 %3, ptr align 1 %8, i64 8, i1 false)
  %9 = load ptr, ptr %3, align 8
  call void @SDL_free_REAL(ptr noundef %9)
  call void @llvm.lifetime.end.p0(i64 8, ptr %3) #8
  br label %10

10:                                               ; preds = %6, %1
  ret void
}