; Function Attrs: nounwind uwtable
define hidden void @SDL_aligned_free_REAL(ptr noundef readonly captures(address_is_null) %0) local_unnamed_addr #5 {
  %.not = icmp eq ptr %0, null
  br i1 %.not, label %4, label %2

2:                                                ; preds = %1
  %3 = getelementptr inbounds i8, ptr %0, i64 -8
  %.0.copyload = load ptr, ptr %3, align 1
  tail call void @SDL_free_REAL(ptr noundef %.0.copyload) #10
  br label %4

4:                                                ; preds = %2, %1
  ret void
}